; Function Attrs: nounwind sspstrong uwtable
define dso_local zeroext i1 @visit_type_ImageInfoSpecific_members(ptr noundef %v, ptr noundef %obj, ptr noundef %errp) local_unnamed_addr #0 {
entry:
  %value.i.i = alloca i32, align 4
  call void @llvm.lifetime.start.p0(i64 4, ptr nonnull %value.i.i)
  %0 = load i32, ptr %obj, align 4
  store i32 %0, ptr %value.i.i, align 4
  %call.i.i = call zeroext i1 @visit_type_enum(ptr noundef %v, ptr noundef nonnull @.str.32, ptr noundef nonnull %value.i.i, ptr noundef nonnull @ImageInfoSpecificKind_lookup, ptr noundef %errp) #5
  %1 = load i32, ptr %value.i.i, align 4
  store i32 %1, ptr %obj, align 4
  call void @llvm.lifetime.end.p0(i64 4, ptr nonnull %value.i.i)
  br i1 %call.i.i, label %if.end, label %return

if.end:                                           ; preds = %entry
  switch i32 %1, label %sw.default [
    i32 0, label %sw.bb
    i32 1, label %sw.bb2
    i32 2, label %sw.bb5
    i32 3, label %sw.bb8
    i32 4, label %sw.bb11
  ]

sw.bb:                                            ; preds = %if.end
  %u = getelementptr inbounds nuw i8, ptr %obj, i64 8
  %call.i = call noundef zeroext i1 @visit_type_ImageInfoSpecificQCow2(ptr noundef %v, ptr noundef nonnull @.str.31, ptr noundef nonnull %u, ptr noundef %errp)
  br label %return

sw.bb2:                                           ; preds = %if.end
  %u3 = getelementptr inbounds nuw i8, ptr %obj, i64 8
  %call.i17 = call noundef zeroext i1 @visit_type_ImageInfoSpecificVmdk(ptr noundef %v, ptr noundef nonnull @.str.31, ptr noundef nonnull %u3, ptr noundef %errp)
  br label %return

sw.bb5:                                           ; preds = %if.end
  %u6 = getelementptr inbounds nuw i8, ptr %obj, i64 8
  %call.i18 = call zeroext i1 @visit_type_QCryptoBlockInfoLUKS(ptr noundef %v, ptr noundef nonnull @.str.31, ptr noundef nonnull %u6, ptr noundef %errp) #5
  br label %return

sw.bb8:                                           ; preds = %if.end
  %u9 = getelementptr inbounds nuw i8, ptr %obj, i64 8
  %call.i19 = call noundef zeroext i1 @visit_type_ImageInfoSpecificRbd(ptr noundef %v, ptr noundef nonnull @.str.31, ptr noundef nonnull %u9, ptr noundef %errp)
  br label %return

sw.bb11:                                          ; preds = %if.end
  %u12 = getelementptr inbounds nuw i8, ptr %obj, i64 8
  %call.i20 = call noundef zeroext i1 @visit_type_ImageInfoSpecificFile(ptr noundef %v, ptr noundef nonnull @.str.31, ptr noundef nonnull %u12, ptr noundef %errp)
  br label %return

sw.default:                                       ; preds = %if.end
  call void @abort() #6
  unreachable

return:                                           ; preds = %entry, %sw.bb11, %sw.bb8, %sw.bb5, %sw.bb2, %sw.bb
  %retval.0 = phi i1 [ %call.i20, %sw.bb11 ], [ %call.i19, %sw.bb8 ], [ %call.i18, %sw.bb5 ], [ %call.i17, %sw.bb2 ], [ %call.i, %sw.bb ], [ false, %entry ]
  ret i1 %retval.0
}